target datalayout = "e-m:e-p270:32:32-p271:32:32-p272:64:64-i64:64-i128:128-f80:128-n8:16:32:64-S128"
target triple = "x86_64-pc-linux-gnu"

%struct.AVFilterContext = type { ptr, ptr, ptr, ptr, ptr, i32, ptr, ptr, i32, ptr, ptr, i32, i32, ptr, ptr, ptr, ptr, i32, ptr, i32, i32 }
%struct.MaskedMergeContext = type { ptr, [4 x i32], [4 x i32], [4 x i32], i32, i32, i32, i32, i32, %struct.FFFrameSync, ptr }
%struct.FFFrameSync = type { ptr, ptr, i32, %struct.AVRational, i64, ptr, ptr, i32, i32, i8, i8, ptr, i32, i32, i32, i32 }
%struct.AVRational = type { i32, i32 }
%struct.AVChannelLayout = type { i32, i32, %union.anon.1, ptr }
%union.anon.1 = type { i64 }
%struct.ThreadData = type { ptr, ptr, ptr, ptr }
%struct.AVFrame = type { [8 x ptr], [8 x i32], ptr, i32, i32, i32, i32, i32, %struct.AVRational, i64, i64, %struct.AVRational, i32, ptr, i32, i32, [8 x ptr], ptr, i32, ptr, i32, i32, i32, i32, i32, i32, i32, i64, ptr, i32, ptr, ptr, i64, i64, i64, i64, ptr, %struct.AVChannelLayout, i64 }

; Function Attrs: nounwind uwtable
define internal i32 @filter_slice(ptr noundef %0, ptr noundef %1, i32 noundef %2, i32 noundef %3) #2 {
  %5 = alloca ptr, align 8
  %6 = alloca ptr, align 8
  %7 = alloca i32, align 4
  %8 = alloca i32, align 4
  %9 = alloca ptr, align 8
  %10 = alloca ptr, align 8
  %11 = alloca ptr, align 8
  %12 = alloca ptr, align 8
  %13 = alloca ptr, align 8
  %14 = alloca ptr, align 8
  %15 = alloca i32, align 4
  %16 = alloca i32, align 4
  %17 = alloca i32, align 4
  %18 = alloca i32, align 4
  %19 = alloca i32, align 4
  store ptr %0, ptr %5, align 8, !tbaa !4
  store ptr %1, ptr %6, align 8, !tbaa !107
  store i32 %2, ptr %7, align 4, !tbaa !44
  store i32 %3, ptr %8, align 4, !tbaa !44
  call void @llvm.lifetime.start.p0(i64 8, ptr %9) #10
  %20 = load ptr, ptr %5, align 8, !tbaa !4
  %21 = getelementptr inbounds nuw %struct.AVFilterContext, ptr %20, i32 0, i32 9
  %22 = load ptr, ptr %21, align 8, !tbaa !9
  store ptr %22, ptr %9, align 8, !tbaa !22
  call void @llvm.lifetime.start.p0(i64 8, ptr %10) #10
  %23 = load ptr, ptr %6, align 8, !tbaa !107
  store ptr %23, ptr %10, align 8, !tbaa !108
  call void @llvm.lifetime.start.p0(i64 8, ptr %11) #10
  %24 = load ptr, ptr %10, align 8, !tbaa !108
  %25 = getelementptr inbounds nuw %struct.ThreadData, ptr %24, i32 0, i32 0
  %26 = load ptr, ptr %25, align 8, !tbaa !98
  store ptr %26, ptr %11, align 8, !tbaa !95
  call void @llvm.lifetime.start.p0(i64 8, ptr %12) #10
  %27 = load ptr, ptr %10, align 8, !tbaa !108
  %28 = getelementptr inbounds nuw %struct.ThreadData, ptr %27, i32 0, i32 1
  %29 = load ptr, ptr %28, align 8, !tbaa !99
  store ptr %29, ptr %12, align 8, !tbaa !95
  call void @llvm.lifetime.start.p0(i64 8, ptr %13) #10
  %30 = load ptr, ptr %10, align 8, !tbaa !108
  %31 = getelementptr inbounds nuw %struct.ThreadData, ptr %30, i32 0, i32 2
  %32 = load ptr, ptr %31, align 8, !tbaa !100
  store ptr %32, ptr %13, align 8, !tbaa !95
  call void @llvm.lifetime.start.p0(i64 8, ptr %14) #10
  %33 = load ptr, ptr %10, align 8, !tbaa !108
  %34 = getelementptr inbounds nuw %struct.ThreadData, ptr %33, i32 0, i32 3
  %35 = load ptr, ptr %34, align 8, !tbaa !96
  store ptr %35, ptr %14, align 8, !tbaa !95
  call void @llvm.lifetime.start.p0(i64 4, ptr %15) #10
  store i32 0, ptr %15, align 4, !tbaa !44
  br label %36

36:                                               ; preds = %235, %4
  %37 = load i32, ptr %15, align 4, !tbaa !44
  %38 = load ptr, ptr %9, align 8, !tbaa !22
  %39 = getelementptr inbounds nuw %struct.MaskedMergeContext, ptr %38, i32 0, i32 4
  %40 = load i32, ptr %39, align 8, !tbaa !37
  %41 = icmp slt i32 %37, %40
  br i1 %41, label %42, label %238

42:                                               ; preds = %36
  call void @llvm.lifetime.start.p0(i64 4, ptr %16) #10
  %43 = load ptr, ptr %9, align 8, !tbaa !22
  %44 = getelementptr inbounds nuw %struct.MaskedMergeContext, ptr %43, i32 0, i32 2
  %45 = load i32, ptr %15, align 4, !tbaa !44
  %46 = sext i32 %45 to i64
  %47 = getelementptr inbounds [4 x i32], ptr %44, i64 0, i64 %46
  %48 = load i32, ptr %47, align 4, !tbaa !44
  store i32 %48, ptr %16, align 4, !tbaa !44
  call void @llvm.lifetime.start.p0(i64 4, ptr %17) #10
  %49 = load i32, ptr %16, align 4, !tbaa !44
  %50 = load i32, ptr %7, align 4, !tbaa !44
  %51 = mul nsw i32 %49, %50
  %52 = load i32, ptr %8, align 4, !tbaa !44
  %53 = sdiv i32 %51, %52
  store i32 %53, ptr %17, align 4, !tbaa !44
  call void @llvm.lifetime.start.p0(i64 4, ptr %18) #10
  %54 = load i32, ptr %16, align 4, !tbaa !44
  %55 = load i32, ptr %7, align 4, !tbaa !44
  %56 = add nsw i32 %55, 1
  %57 = mul nsw i32 %54, %56
  %58 = load i32, ptr %8, align 4, !tbaa !44
  %59 = sdiv i32 %57, %58
  store i32 %59, ptr %18, align 4, !tbaa !44
  %60 = load i32, ptr %15, align 4, !tbaa !44
  %61 = shl i32 1, %60
  %62 = load ptr, ptr %9, align 8, !tbaa !22
  %63 = getelementptr inbounds nuw %struct.MaskedMergeContext, ptr %62, i32 0, i32 5
  %64 = load i32, ptr %63, align 4, !tbaa !110
  %65 = and i32 %61, %64
  %66 = icmp ne i32 %65, 0
  br i1 %66, label %121, label %67

67:                                               ; preds = %42
  %68 = load ptr, ptr %14, align 8, !tbaa !95
  %69 = getelementptr inbounds nuw %struct.AVFrame, ptr %68, i32 0, i32 0
  %70 = load i32, ptr %15, align 4, !tbaa !44
  %71 = sext i32 %70 to i64
  %72 = getelementptr inbounds [8 x ptr], ptr %69, i64 0, i64 %71
  %73 = load ptr, ptr %72, align 8, !tbaa !54
  %74 = load i32, ptr %17, align 4, !tbaa !44
  %75 = load ptr, ptr %14, align 8, !tbaa !95
  %76 = getelementptr inbounds nuw %struct.AVFrame, ptr %75, i32 0, i32 1
  %77 = load i32, ptr %15, align 4, !tbaa !44
  %78 = sext i32 %77 to i64
  %79 = getelementptr inbounds [8 x i32], ptr %76, i64 0, i64 %78
  %80 = load i32, ptr %79, align 4, !tbaa !44
  %81 = mul nsw i32 %74, %80
  %82 = sext i32 %81 to i64
  %83 = getelementptr inbounds i8, ptr %73, i64 %82
  %84 = load ptr, ptr %14, align 8, !tbaa !95
  %85 = getelementptr inbounds nuw %struct.AVFrame, ptr %84, i32 0, i32 1
  %86 = load i32, ptr %15, align 4, !tbaa !44
  %87 = sext i32 %86 to i64
  %88 = getelementptr inbounds [8 x i32], ptr %85, i64 0, i64 %87
  %89 = load i32, ptr %88, align 4, !tbaa !44
  %90 = load ptr, ptr %11, align 8, !tbaa !95
  %91 = getelementptr inbounds nuw %struct.AVFrame, ptr %90, i32 0, i32 0
  %92 = load i32, ptr %15, align 4, !tbaa !44
  %93 = sext i32 %92 to i64
  %94 = getelementptr inbounds [8 x ptr], ptr %91, i64 0, i64 %93
  %95 = load ptr, ptr %94, align 8, !tbaa !54
  %96 = load i32, ptr %17, align 4, !tbaa !44
  %97 = load ptr, ptr %11, align 8, !tbaa !95
  %98 = getelementptr inbounds nuw %struct.AVFrame, ptr %97, i32 0, i32 1
  %99 = load i32, ptr %15, align 4, !tbaa !44
  %100 = sext i32 %99 to i64
  %101 = getelementptr inbounds [8 x i32], ptr %98, i64 0, i64 %100
  %102 = load i32, ptr %101, align 4, !tbaa !44
  %103 = mul nsw i32 %96, %102
  %104 = sext i32 %103 to i64
  %105 = getelementptr inbounds i8, ptr %95, i64 %104
  %106 = load ptr, ptr %11, align 8, !tbaa !95
  %107 = getelementptr inbounds nuw %struct.AVFrame, ptr %106, i32 0, i32 1
  %108 = load i32, ptr %15, align 4, !tbaa !44
  %109 = sext i32 %108 to i64
  %110 = getelementptr inbounds [8 x i32], ptr %107, i64 0, i64 %109
  %111 = load i32, ptr %110, align 4, !tbaa !44
  %112 = load ptr, ptr %9, align 8, !tbaa !22
  %113 = getelementptr inbounds nuw %struct.MaskedMergeContext, ptr %112, i32 0, i32 3
  %114 = load i32, ptr %15, align 4, !tbaa !44
  %115 = sext i32 %114 to i64
  %116 = getelementptr inbounds [4 x i32], ptr %113, i64 0, i64 %115
  %117 = load i32, ptr %116, align 4, !tbaa !44
  %118 = load i32, ptr %18, align 4, !tbaa !44
  %119 = load i32, ptr %17, align 4, !tbaa !44
  %120 = sub nsw i32 %118, %119
  call void @av_image_copy_plane(ptr noundef %83, i32 noundef %89, ptr noundef %105, i32 noundef %111, i32 noundef %117, i32 noundef %120)
  store i32 4, ptr %19, align 4
  br label %232

121:                                              ; preds = %42
  %122 = load ptr, ptr %9, align 8, !tbaa !22
  %123 = getelementptr inbounds nuw %struct.MaskedMergeContext, ptr %122, i32 0, i32 10
  %124 = load ptr, ptr %123, align 8, !tbaa !53
  %125 = load ptr, ptr %11, align 8, !tbaa !95
  %126 = getelementptr inbounds nuw %struct.AVFrame, ptr %125, i32 0, i32 0
  %127 = load i32, ptr %15, align 4, !tbaa !44
  %128 = sext i32 %127 to i64
  %129 = getelementptr inbounds [8 x ptr], ptr %126, i64 0, i64 %128
  %130 = load ptr, ptr %129, align 8, !tbaa !54
  %131 = load i32, ptr %17, align 4, !tbaa !44
  %132 = load ptr, ptr %11, align 8, !tbaa !95
  %133 = getelementptr inbounds nuw %struct.AVFrame, ptr %132, i32 0, i32 1
  %134 = load i32, ptr %15, align 4, !tbaa !44
  %135 = sext i32 %134 to i64
  %136 = getelementptr inbounds [8 x i32], ptr %133, i64 0, i64 %135
  %137 = load i32, ptr %136, align 4, !tbaa !44
  %138 = mul nsw i32 %131, %137
  %139 = sext i32 %138 to i64
  %140 = getelementptr inbounds i8, ptr %130, i64 %139
  %141 = load ptr, ptr %12, align 8, !tbaa !95
  %142 = getelementptr inbounds nuw %struct.AVFrame, ptr %141, i32 0, i32 0
  %143 = load i32, ptr %15, align 4, !tbaa !44
  %144 = sext i32 %143 to i64
  %145 = getelementptr inbounds [8 x ptr], ptr %142, i64 0, i64 %144
  %146 = load ptr, ptr %145, align 8, !tbaa !54
  %147 = load i32, ptr %17, align 4, !tbaa !44
  %148 = load ptr, ptr %12, align 8, !tbaa !95
  %149 = getelementptr inbounds nuw %struct.AVFrame, ptr %148, i32 0, i32 1
  %150 = load i32, ptr %15, align 4, !tbaa !44
  %151 = sext i32 %150 to i64
  %152 = getelementptr inbounds [8 x i32], ptr %149, i64 0, i64 %151
  %153 = load i32, ptr %152, align 4, !tbaa !44
  %154 = mul nsw i32 %147, %153
  %155 = sext i32 %154 to i64
  %156 = getelementptr inbounds i8, ptr %146, i64 %155
  %157 = load ptr, ptr %13, align 8, !tbaa !95
  %158 = getelementptr inbounds nuw %struct.AVFrame, ptr %157, i32 0, i32 0
  %159 = load i32, ptr %15, align 4, !tbaa !44
  %160 = sext i32 %159 to i64
  %161 = getelementptr inbounds [8 x ptr], ptr %158, i64 0, i64 %160
  %162 = load ptr, ptr %161, align 8, !tbaa !54
  %163 = load i32, ptr %17, align 4, !tbaa !44
  %164 = load ptr, ptr %13, align 8, !tbaa !95
  %165 = getelementptr inbounds nuw %struct.AVFrame, ptr %164, i32 0, i32 1
  %166 = load i32, ptr %15, align 4, !tbaa !44
  %167 = sext i32 %166 to i64
  %168 = getelementptr inbounds [8 x i32], ptr %165, i64 0, i64 %167
  %169 = load i32, ptr %168, align 4, !tbaa !44
  %170 = mul nsw i32 %163, %169
  %171 = sext i32 %170 to i64
  %172 = getelementptr inbounds i8, ptr %162, i64 %171
  %173 = load ptr, ptr %14, align 8, !tbaa !95
  %174 = getelementptr inbounds nuw %struct.AVFrame, ptr %173, i32 0, i32 0
  %175 = load i32, ptr %15, align 4, !tbaa !44
  %176 = sext i32 %175 to i64
  %177 = getelementptr inbounds [8 x ptr], ptr %174, i64 0, i64 %176
  %178 = load ptr, ptr %177, align 8, !tbaa !54
  %179 = load i32, ptr %17, align 4, !tbaa !44
  %180 = load ptr, ptr %14, align 8, !tbaa !95
  %181 = getelementptr inbounds nuw %struct.AVFrame, ptr %180, i32 0, i32 1
  %182 = load i32, ptr %15, align 4, !tbaa !44
  %183 = sext i32 %182 to i64
  %184 = getelementptr inbounds [8 x i32], ptr %181, i64 0, i64 %183
  %185 = load i32, ptr %184, align 4, !tbaa !44
  %186 = mul nsw i32 %179, %185
  %187 = sext i32 %186 to i64
  %188 = getelementptr inbounds i8, ptr %178, i64 %187
  %189 = load ptr, ptr %11, align 8, !tbaa !95
  %190 = getelementptr inbounds nuw %struct.AVFrame, ptr %189, i32 0, i32 1
  %191 = load i32, ptr %15, align 4, !tbaa !44
  %192 = sext i32 %191 to i64
  %193 = getelementptr inbounds [8 x i32], ptr %190, i64 0, i64 %192
  %194 = load i32, ptr %193, align 4, !tbaa !44
  %195 = sext i32 %194 to i64
  %196 = load ptr, ptr %12, align 8, !tbaa !95
  %197 = getelementptr inbounds nuw %struct.AVFrame, ptr %196, i32 0, i32 1
  %198 = load i32, ptr %15, align 4, !tbaa !44
  %199 = sext i32 %198 to i64
  %200 = getelementptr inbounds [8 x i32], ptr %197, i64 0, i64 %199
  %201 = load i32, ptr %200, align 4, !tbaa !44
  %202 = sext i32 %201 to i64
  %203 = load ptr, ptr %13, align 8, !tbaa !95
  %204 = getelementptr inbounds nuw %struct.AVFrame, ptr %203, i32 0, i32 1
  %205 = load i32, ptr %15, align 4, !tbaa !44
  %206 = sext i32 %205 to i64
  %207 = getelementptr inbounds [8 x i32], ptr %204, i64 0, i64 %206
  %208 = load i32, ptr %207, align 4, !tbaa !44
  %209 = sext i32 %208 to i64
  %210 = load ptr, ptr %14, align 8, !tbaa !95
  %211 = getelementptr inbounds nuw %struct.AVFrame, ptr %210, i32 0, i32 1
  %212 = load i32, ptr %15, align 4, !tbaa !44
  %213 = sext i32 %212 to i64
  %214 = getelementptr inbounds [8 x i32], ptr %211, i64 0, i64 %213
  %215 = load i32, ptr %214, align 4, !tbaa !44
  %216 = sext i32 %215 to i64
  %217 = load ptr, ptr %9, align 8, !tbaa !22
  %218 = getelementptr inbounds nuw %struct.MaskedMergeContext, ptr %217, i32 0, i32 1
  %219 = load i32, ptr %15, align 4, !tbaa !44
  %220 = sext i32 %219 to i64
  %221 = getelementptr inbounds [4 x i32], ptr %218, i64 0, i64 %220
  %222 = load i32, ptr %221, align 4, !tbaa !44
  %223 = load i32, ptr %18, align 4, !tbaa !44
  %224 = load i32, ptr %17, align 4, !tbaa !44
  %225 = sub nsw i32 %223, %224
  %226 = load ptr, ptr %9, align 8, !tbaa !22
  %227 = getelementptr inbounds nuw %struct.MaskedMergeContext, ptr %226, i32 0, i32 6
  %228 = load i32, ptr %227, align 8, !tbaa !52
  %229 = load ptr, ptr %9, align 8, !tbaa !22
  %230 = getelementptr inbounds nuw %struct.MaskedMergeContext, ptr %229, i32 0, i32 8
  %231 = load i32, ptr %230, align 8, !tbaa !51
  call void %124(ptr noundef %140, ptr noundef %156, ptr noundef %172, ptr noundef %188, i64 noundef %195, i64 noundef %202, i64 noundef %209, i64 noundef %216, i32 noundef %222, i32 noundef %225, i32 noundef %228, i32 noundef %231)
  store i32 0, ptr %19, align 4
  br label %232

232:                                              ; preds = %121, %67
  call void @llvm.lifetime.end.p0(i64 4, ptr %18) #10
  call void @llvm.lifetime.end.p0(i64 4, ptr %17) #10
  call void @llvm.lifetime.end.p0(i64 4, ptr %16) #10
  %233 = load i32, ptr %19, align 4
  switch i32 %233, label %239 [
    i32 0, label %234
    i32 4, label %235
  ]

234:                                              ; preds = %232
  br label %235

235:                                              ; preds = %234, %232
  %236 = load i32, ptr %15, align 4, !tbaa !44
  %237 = add nsw i32 %236, 1
  store i32 %237, ptr %15, align 4, !tbaa !44
  br label %36, !llvm.loop !111

238:                                              ; preds = %36
  store i32 1, ptr %19, align 4
  call void @llvm.lifetime.end.p0(i64 4, ptr %15) #10
  call void @llvm.lifetime.end.p0(i64 8, ptr %14) #10
  call void @llvm.lifetime.end.p0(i64 8, ptr %13) #10
  call void @llvm.lifetime.end.p0(i64 8, ptr %12) #10
  call void @llvm.lifetime.end.p0(i64 8, ptr %11) #10
  call void @llvm.lifetime.end.p0(i64 8, ptr %10) #10
  call void @llvm.lifetime.end.p0(i64 8, ptr %9) #10
  ret i32 0

239:                                              ; preds = %232
  unreachable
}