; Function Attrs: nounwind uwtable
define internal noundef i32 @filter_slice(ptr noundef readonly captures(none) %0, ptr noundef readonly captures(none) %1, i32 noundef %2, i32 noundef %3) #2 {
  %5 = getelementptr inbounds nuw i8, ptr %0, i64 72
  %6 = load ptr, ptr %5, align 8, !tbaa !4
  %7 = load ptr, ptr %1, align 8, !tbaa !81
  %8 = getelementptr inbounds nuw i8, ptr %1, i64 8
  %9 = load ptr, ptr %8, align 8, !tbaa !82
  %10 = getelementptr inbounds nuw i8, ptr %1, i64 16
  %11 = load ptr, ptr %10, align 8, !tbaa !83
  %12 = getelementptr inbounds nuw i8, ptr %1, i64 24
  %13 = load ptr, ptr %12, align 8, !tbaa !79
  %14 = getelementptr inbounds nuw i8, ptr %6, i64 56
  %15 = load i32, ptr %14, align 8, !tbaa !30
  %16 = icmp sgt i32 %15, 0
  br i1 %16, label %.lr.ph, label %._crit_edge

.lr.ph:                                           ; preds = %4
  %17 = getelementptr inbounds nuw i8, ptr %6, i64 24
  %18 = add nsw i32 %2, 1
  %19 = getelementptr inbounds nuw i8, ptr %6, i64 60
  %20 = getelementptr inbounds nuw i8, ptr %6, i64 176
  %21 = getelementptr inbounds nuw i8, ptr %7, i64 64
  %22 = getelementptr inbounds nuw i8, ptr %9, i64 64
  %23 = getelementptr inbounds nuw i8, ptr %11, i64 64
  %24 = getelementptr inbounds nuw i8, ptr %13, i64 64
  %25 = getelementptr inbounds nuw i8, ptr %6, i64 8
  %26 = getelementptr inbounds nuw i8, ptr %6, i64 64
  %27 = getelementptr inbounds nuw i8, ptr %6, i64 72
  %28 = getelementptr inbounds nuw i8, ptr %6, i64 40
  br label %29

29:                                               ; preds = %.lr.ph, %97
  %indvars.iv = phi i64 [ 0, %.lr.ph ], [ %indvars.iv.next, %97 ]
  %30 = getelementptr inbounds nuw [4 x i32], ptr %17, i64 0, i64 %indvars.iv
  %31 = load i32, ptr %30, align 4, !tbaa !39
  %32 = mul nsw i32 %31, %2
  %33 = sdiv i32 %32, %3
  %34 = mul nsw i32 %31, %18
  %35 = sdiv i32 %34, %3
  %36 = trunc nuw nsw i64 %indvars.iv to i32
  %37 = shl nuw i32 1, %36
  %38 = load i32, ptr %19, align 4, !tbaa !90
  %39 = and i32 %38, %37
  %.not = icmp eq i32 %39, 0
  br i1 %.not, label %40, label %58

40:                                               ; preds = %29
  %41 = getelementptr inbounds nuw [8 x ptr], ptr %13, i64 0, i64 %indvars.iv
  %42 = load ptr, ptr %41, align 8, !tbaa !91
  %43 = getelementptr inbounds nuw [8 x i32], ptr %24, i64 0, i64 %indvars.iv
  %44 = load i32, ptr %43, align 4, !tbaa !39
  %45 = mul nsw i32 %44, %33
  %46 = sext i32 %45 to i64
  %47 = getelementptr inbounds i8, ptr %42, i64 %46
  %48 = getelementptr inbounds nuw [8 x ptr], ptr %7, i64 0, i64 %indvars.iv
  %49 = load ptr, ptr %48, align 8, !tbaa !91
  %50 = getelementptr inbounds nuw [8 x i32], ptr %21, i64 0, i64 %indvars.iv
  %51 = load i32, ptr %50, align 4, !tbaa !39
  %52 = mul nsw i32 %51, %33
  %53 = sext i32 %52 to i64
  %54 = getelementptr inbounds i8, ptr %49, i64 %53
  %55 = getelementptr inbounds nuw [4 x i32], ptr %28, i64 0, i64 %indvars.iv
  %56 = load i32, ptr %55, align 4, !tbaa !39
  %57 = sub nsw i32 %35, %33
  tail call void @av_image_copy_plane(ptr noundef %47, i32 noundef %44, ptr noundef %54, i32 noundef %51, i32 noundef %56, i32 noundef %57) #9
  br label %97

58:                                               ; preds = %29
  %59 = load ptr, ptr %20, align 8, !tbaa !46
  %60 = getelementptr inbounds nuw [8 x ptr], ptr %7, i64 0, i64 %indvars.iv
  %61 = load ptr, ptr %60, align 8, !tbaa !91
  %62 = getelementptr inbounds nuw [8 x i32], ptr %21, i64 0, i64 %indvars.iv
  %63 = load i32, ptr %62, align 4, !tbaa !39
  %64 = mul nsw i32 %63, %33
  %65 = sext i32 %64 to i64
  %66 = getelementptr inbounds i8, ptr %61, i64 %65
  %67 = getelementptr inbounds nuw [8 x ptr], ptr %9, i64 0, i64 %indvars.iv
  %68 = load ptr, ptr %67, align 8, !tbaa !91
  %69 = getelementptr inbounds nuw [8 x i32], ptr %22, i64 0, i64 %indvars.iv
  %70 = load i32, ptr %69, align 4, !tbaa !39
  %71 = mul nsw i32 %70, %33
  %72 = sext i32 %71 to i64
  %73 = getelementptr inbounds i8, ptr %68, i64 %72
  %74 = getelementptr inbounds nuw [8 x ptr], ptr %11, i64 0, i64 %indvars.iv
  %75 = load ptr, ptr %74, align 8, !tbaa !91
  %76 = getelementptr inbounds nuw [8 x i32], ptr %23, i64 0, i64 %indvars.iv
  %77 = load i32, ptr %76, align 4, !tbaa !39
  %78 = mul nsw i32 %77, %33
  %79 = sext i32 %78 to i64
  %80 = getelementptr inbounds i8, ptr %75, i64 %79
  %81 = getelementptr inbounds nuw [8 x ptr], ptr %13, i64 0, i64 %indvars.iv
  %82 = load ptr, ptr %81, align 8, !tbaa !91
  %83 = getelementptr inbounds nuw [8 x i32], ptr %24, i64 0, i64 %indvars.iv
  %84 = load i32, ptr %83, align 4, !tbaa !39
  %85 = mul nsw i32 %84, %33
  %86 = sext i32 %85 to i64
  %87 = getelementptr inbounds i8, ptr %82, i64 %86
  %88 = sext i32 %63 to i64
  %89 = sext i32 %70 to i64
  %90 = sext i32 %77 to i64
  %91 = sext i32 %84 to i64
  %92 = getelementptr inbounds nuw [4 x i32], ptr %25, i64 0, i64 %indvars.iv
  %93 = load i32, ptr %92, align 4, !tbaa !39
  %94 = sub nsw i32 %35, %33
  %95 = load i32, ptr %26, align 8, !tbaa !45
  %96 = load i32, ptr %27, align 8, !tbaa !44
  tail call void %59(ptr noundef %66, ptr noundef %73, ptr noundef %80, ptr noundef %87, i64 noundef %88, i64 noundef %89, i64 noundef %90, i64 noundef %91, i32 noundef %93, i32 noundef %94, i32 noundef %95, i32 noundef %96) #9
  br label %97

97:                                               ; preds = %58, %40
  %indvars.iv.next = add nuw nsw i64 %indvars.iv, 1
  %98 = load i32, ptr %14, align 8, !tbaa !30
  %99 = sext i32 %98 to i64
  %100 = icmp slt i64 %indvars.iv.next, %99
  br i1 %100, label %29, label %._crit_edge, !llvm.loop !92

._crit_edge:                                      ; preds = %97, %4
  ret i32 0
}